target datalayout = "e-m:e-p270:32:32-p271:32:32-p272:64:64-i64:64-i128:128-f80:128-n8:16:32:64-S128"
target triple = "x86_64-pc-linux-gnu"

; Function Attrs: nounwind uwtable
define dso_local ptr @llvm_emit_const_vector(ptr noundef %0, i32 noundef %1) #0 {
  %3 = alloca ptr, align 8
  %4 = alloca i32, align 4
  %5 = alloca [256 x ptr], align 16
  %6 = alloca ptr, align 8
  %7 = alloca i32, align 4
  store ptr %0, ptr %3, align 8
  store i32 %1, ptr %4, align 4
  %8 = getelementptr inbounds [256 x ptr], ptr %5, i64 0, i64 0
  store ptr %8, ptr %6, align 8
  %9 = load i32, ptr %4, align 4
  %10 = icmp ugt i32 %9, 256
  br i1 %10, label %11, label %16

11:                                               ; preds = %2
  %12 = load i32, ptr %4, align 4
  %13 = zext i32 %12 to i64
  %14 = mul i64 %13, 8
  %15 = call ptr @calloc_arena(i64 noundef %14)
  store ptr %15, ptr %6, align 8
  br label %16

16:                                               ; preds = %11, %2
  store i32 0, ptr %7, align 4
  br label %17

17:                                               ; preds = %27, %16
  %18 = load i32, ptr %7, align 4
  %19 = load i32, ptr %4, align 4
  %20 = icmp ult i32 %18, %19
  br i1 %20, label %21, label %30

21:                                               ; preds = %17
  %22 = load ptr, ptr %3, align 8
  %23 = load ptr, ptr %6, align 8
  %24 = load i32, ptr %7, align 4
  %25 = zext i32 %24 to i64
  %26 = getelementptr inbounds ptr, ptr %23, i64 %25
  store ptr %22, ptr %26, align 8
  br label %27

27:                                               ; preds = %21
  %28 = load i32, ptr %7, align 4
  %29 = add i32 %28, 1
  store i32 %29, ptr %7, align 4
  br label %17, !llvm.loop !32

30:                                               ; preds = %17
  %31 = load ptr, ptr %6, align 8
  %32 = load i32, ptr %4, align 4
  %33 = call ptr @LLVMConstVector(ptr noundef %31, i32 noundef %32)
  ret ptr %33
}