; Function Attrs: nounwind uwtable
define dso_local ptr @llvm_emit_const_vector(ptr noundef %0, i32 noundef %1) local_unnamed_addr #0 {
  %3 = alloca [256 x ptr], align 16
  %4 = icmp ugt i32 %1, 256
  br i1 %4, label %.thread, label %8

.thread:                                          ; preds = %2
  %5 = zext i32 %1 to i64
  %6 = shl nuw nsw i64 %5, 3
  %7 = tail call ptr @calloc_arena(i64 noundef %6) #10
  br label %.lr.ph.preheader

8:                                                ; preds = %2
  %.not = icmp eq i32 %1, 0
  br i1 %.not, label %._crit_edge, label %.lr.ph.preheader

.lr.ph.preheader:                                 ; preds = %.thread, %8
  %.0915 = phi ptr [ %7, %.thread ], [ %3, %8 ]
  %wide.trip.count = zext i32 %1 to i64
  br label %.lr.ph

.lr.ph:                                           ; preds = %.lr.ph.preheader, %.lr.ph
  %indvars.iv = phi i64 [ 0, %.lr.ph.preheader ], [ %indvars.iv.next, %.lr.ph ]
  %9 = getelementptr inbounds ptr, ptr %.0915, i64 %indvars.iv
  store ptr %0, ptr %9, align 8
  %indvars.iv.next = add nuw nsw i64 %indvars.iv, 1
  %exitcond.not = icmp eq i64 %indvars.iv.next, %wide.trip.count
  br i1 %exitcond.not, label %._crit_edge, label %.lr.ph, !llvm.loop !45

._crit_edge:                                      ; preds = %.lr.ph, %8
  %.0916 = phi ptr [ %3, %8 ], [ %.0915, %.lr.ph ]
  %10 = call ptr @LLVMConstVector(ptr noundef nonnull %.0916, i32 noundef %1) #10
  ret ptr %10
}